; Function Attrs: mustprogress nofree norecurse nosync nounwind willreturn memory(write, argmem: readwrite, inaccessiblemem: none) uwtable
define hidden range(i32 -1, 1) i32 @mbedtls_ssl_set_calc_verify_md(ptr noundef readonly captures(none) %0, i32 noundef %1) local_unnamed_addr #10 {
  switch i32 %1, label %7 [
    i32 5, label %.sink.split
    i32 4, label %3
  ]

3:                                                ; preds = %2
  br label %.sink.split

.sink.split:                                      ; preds = %2, %3
  %ssl_calc_verify_tls_sha384.sink = phi ptr [ @ssl_calc_verify_tls_sha256, %3 ], [ @ssl_calc_verify_tls_sha384, %2 ]
  %4 = getelementptr inbounds nuw i8, ptr %0, i64 112
  %5 = load ptr, ptr %4, align 8, !tbaa !70
  %6 = getelementptr inbounds nuw i8, ptr %5, i64 32
  store ptr %ssl_calc_verify_tls_sha384.sink, ptr %6, align 8, !tbaa !262
  br label %7

7:                                                ; preds = %.sink.split, %2
  %.0 = phi i32 [ -1, %2 ], [ 0, %.sink.split ]
  ret i32 %.0
}